; ModuleID = '9/726.c'
source_filename = "9/726.c"
target datalayout = "e-m:e-p270:32:32-p271:32:32-p272:64:64-i64:64-f80:128-n8:16:32:64-S128"
target triple = "x86_64-pc-linux-gnu"

%struct.patient = type { [10 x i8], i32 }

@.str = private unnamed_addr constant [3 x i8] c"%d\00", align 1
@.str.1 = private unnamed_addr constant [6 x i8] c"%s %d\00", align 1
@pa = common dso_local global [100 x %struct.patient] zeroinitializer, align 16
@.str.2 = private unnamed_addr constant [4 x i8] c"%s\0A\00", align 1

; Function Attrs: noinline nounwind uwtable
define dso_local void @main() #0 {
  %1 = alloca i32, align 4
  %2 = alloca i32, align 4
  %3 = alloca i32, align 4
  %4 = alloca i32, align 4
  %5 = alloca i32, align 4
  %6 = alloca i32, align 4
  store i32 59, i32* %4, align 4
  store i32 0, i32* %6, align 4
  %7 = call i32 (i8*, ...) @__isoc99_scanf(i8* getelementptr inbounds ([3 x i8], [3 x i8]* @.str, i64 0, i64 0), i32* %1)
  store i32 0, i32* %2, align 4
  br label %8

8:                                                ; preds = %23, %0
  %9 = load i32, i32* %2, align 4
  %10 = load i32, i32* %1, align 4
  %11 = icmp slt i32 %9, %10
  br i1 %11, label %12, label %26

12:                                               ; preds = %8
  %13 = load i32, i32* %2, align 4
  %14 = sext i32 %13 to i64
  %15 = getelementptr inbounds [100 x %struct.patient], [100 x %struct.patient]* @pa, i64 0, i64 %14
  %16 = getelementptr inbounds %struct.patient, %struct.patient* %15, i32 0, i32 0
  %17 = getelementptr inbounds [10 x i8], [10 x i8]* %16, i64 0, i64 0
  %18 = load i32, i32* %2, align 4
  %19 = sext i32 %18 to i64
  %20 = getelementptr inbounds [100 x %struct.patient], [100 x %struct.patient]* @pa, i64 0, i64 %19
  %21 = getelementptr inbounds %struct.patient, %struct.patient* %20, i32 0, i32 1
  %22 = call i32 (i8*, ...) @__isoc99_scanf(i8* getelementptr inbounds ([6 x i8], [6 x i8]* @.str.1, i64 0, i64 0), i8* %17, i32* %21)
  br label %23

23:                                               ; preds = %12
  %24 = load i32, i32* %2, align 4
  %25 = add nsw i32 %24, 1
  store i32 %25, i32* %2, align 4
  br label %8

26:                                               ; preds = %8
  store i32 0, i32* %2, align 4
  br label %27

27:                                               ; preds = %42, %26
  %28 = load i32, i32* %2, align 4
  %29 = load i32, i32* %1, align 4
  %30 = icmp slt i32 %28, %29
  br i1 %30, label %31, label %45

31:                                               ; preds = %27
  %32 = load i32, i32* %2, align 4
  %33 = sext i32 %32 to i64
  %34 = getelementptr inbounds [100 x %struct.patient], [100 x %struct.patient]* @pa, i64 0, i64 %33
  %35 = getelementptr inbounds %struct.patient, %struct.patient* %34, i32 0, i32 1
  %36 = load i32, i32* %35, align 4
  %37 = icmp sgt i32 %36, 59
  br i1 %37, label %38, label %41

38:                                               ; preds = %31
  %39 = load i32, i32* %6, align 4
  %40 = add nsw i32 %39, 1
  store i32 %40, i32* %6, align 4
  br label %41

41:                                               ; preds = %38, %31
  br label %42

42:                                               ; preds = %41
  %43 = load i32, i32* %2, align 4
  %44 = add nsw i32 %43, 1
  store i32 %44, i32* %2, align 4
  br label %27

45:                                               ; preds = %27
  store i32 0, i32* %3, align 4
  br label %46

46:                                               ; preds = %85, %45
  %47 = load i32, i32* %3, align 4
  %48 = load i32, i32* %6, align 4
  %49 = icmp slt i32 %47, %48
  br i1 %49, label %50, label %88

50:                                               ; preds = %46
  store i32 0, i32* %2, align 4
  br label %51

51:                                               ; preds = %71, %50
  %52 = load i32, i32* %2, align 4
  %53 = load i32, i32* %1, align 4
  %54 = icmp slt i32 %52, %53
  br i1 %54, label %55, label %74

55:                                               ; preds = %51
  %56 = load i32, i32* %2, align 4
  %57 = sext i32 %56 to i64
  %58 = getelementptr inbounds [100 x %struct.patient], [100 x %struct.patient]* @pa, i64 0, i64 %57
  %59 = getelementptr inbounds %struct.patient, %struct.patient* %58, i32 0, i32 1
  %60 = load i32, i32* %59, align 4
  %61 = load i32, i32* %4, align 4
  %62 = icmp sgt i32 %60, %61
  br i1 %62, label %63, label %70

63:                                               ; preds = %55
  %64 = load i32, i32* %2, align 4
  %65 = sext i32 %64 to i64
  %66 = getelementptr inbounds [100 x %struct.patient], [100 x %struct.patient]* @pa, i64 0, i64 %65
  %67 = getelementptr inbounds %struct.patient, %struct.patient* %66, i32 0, i32 1
  %68 = load i32, i32* %67, align 4
  store i32 %68, i32* %4, align 4
  %69 = load i32, i32* %2, align 4
  store i32 %69, i32* %5, align 4
  br label %70

70:                                               ; preds = %63, %55
  br label %71

71:                                               ; preds = %70
  %72 = load i32, i32* %2, align 4
  %73 = add nsw i32 %72, 1
  store i32 %73, i32* %2, align 4
  br label %51

74:                                               ; preds = %51
  %75 = load i32, i32* %5, align 4
  %76 = sext i32 %75 to i64
  %77 = getelementptr inbounds [100 x %struct.patient], [100 x %struct.patient]* @pa, i64 0, i64 %76
  %78 = getelementptr inbounds %struct.patient, %struct.patient* %77, i32 0, i32 0
  %79 = getelementptr inbounds [10 x i8], [10 x i8]* %78, i64 0, i64 0
  %80 = call i32 (i8*, ...) @printf(i8* getelementptr inbounds ([4 x i8], [4 x i8]* @.str.2, i64 0, i64 0), i8* %79)
  %81 = load i32, i32* %5, align 4
  %82 = sext i32 %81 to i64
  %83 = getelementptr inbounds [100 x %struct.patient], [100 x %struct.patient]* @pa, i64 0, i64 %82
  %84 = getelementptr inbounds %struct.patient, %struct.patient* %83, i32 0, i32 1
  store i32 0, i32* %84, align 4
  store i32 59, i32* %4, align 4
  br label %85

85:                                               ; preds = %74
  %86 = load i32, i32* %3, align 4
  %87 = add nsw i32 %86, 1
  store i32 %87, i32* %3, align 4
  br label %46

88:                                               ; preds = %46
  store i32 0, i32* %2, align 4
  br label %89

89:                                               ; preds = %115, %88
  %90 = load i32, i32* %2, align 4
  %91 = load i32, i32* %1, align 4
  %92 = icmp slt i32 %90, %91
  br i1 %92, label %93, label %118

93:                                               ; preds = %89
  %94 = load i32, i32* %2, align 4
  %95 = sext i32 %94 to i64
  %96 = getelementptr inbounds [100 x %struct.patient], [100 x %struct.patient]* @pa, i64 0, i64 %95
  %97 = getelementptr inbounds %struct.patient, %struct.patient* %96, i32 0, i32 1
  %98 = load i32, i32* %97, align 4
  %99 = icmp sle i32 %98, 59
  br i1 %99, label %100, label %114

100:                                              ; preds = %93
  %101 = load i32, i32* %2, align 4
  %102 = sext i32 %101 to i64
  %103 = getelementptr inbounds [100 x %struct.patient], [100 x %struct.patient]* @pa, i64 0, i64 %102
  %104 = getelementptr inbounds %struct.patient, %struct.patient* %103, i32 0, i32 1
  %105 = load i32, i32* %104, align 4
  %106 = icmp ne i32 %105, 0
  br i1 %106, label %107, label %114

107:                                              ; preds = %100
  %108 = load i32, i32* %2, align 4
  %109 = sext i32 %108 to i64
  %110 = getelementptr inbounds [100 x %struct.patient], [100 x %struct.patient]* @pa, i64 0, i64 %109
  %111 = getelementptr inbounds %struct.patient, %struct.patient* %110, i32 0, i32 0
  %112 = getelementptr inbounds [10 x i8], [10 x i8]* %111, i64 0, i64 0
  %113 = call i32 (i8*, ...) @printf(i8* getelementptr inbounds ([4 x i8], [4 x i8]* @.str.2, i64 0, i64 0), i8* %112)
  br label %114

114:                                              ; preds = %107, %100, %93
  br label %115

115:                                              ; preds = %114
  %116 = load i32, i32* %2, align 4
  %117 = add nsw i32 %116, 1
  store i32 %117, i32* %2, align 4
  br label %89

118:                                              ; preds = %89
  ret void
}

declare dso_local i32 @__isoc99_scanf(i8*, ...) #1

declare dso_local i32 @printf(i8*, ...) #1


!llvm.module.flags = !{!0}
!llvm.ident = !{!1}

!0 = !{i32 1, !"wchar_size", i32 4}
!1 = !{!"clang version 10.0.0-4ubuntu1 "}
